target datalayout = "e-m:e-p270:32:32-p271:32:32-p272:64:64-i64:64-i128:128-f80:128-n8:16:32:64-S128"
target triple = "x86_64-pc-linux-gnu"

%struct.lua_TValue = type { %union.Value, i32 }
%union.Value = type { ptr }
%struct.lua_State = type { ptr, i8, i8, i8, ptr, ptr, ptr, ptr, ptr, ptr, ptr, ptr, ptr, i32, i32, i16, i16, i8, i8, i32, i32, ptr, %struct.lua_TValue, %struct.lua_TValue, ptr, ptr, ptr, i64 }
%struct.CallInfo = type { ptr, ptr, ptr, ptr, i32, i32 }
%struct.global_State = type { %struct.stringtable, ptr, ptr, i8, i8, i32, ptr, ptr, ptr, ptr, ptr, ptr, %struct.Mbuffer, i64, i64, i64, i64, i32, i32, ptr, %struct.lua_TValue, ptr, %struct.UpVal, [9 x ptr], [17 x ptr] }
%struct.stringtable = type { ptr, i32, i32 }
%struct.Mbuffer = type { ptr, i64, i64 }
%struct.UpVal = type { ptr, i8, i8, ptr, %union.anon }
%union.anon = type { %struct.lua_TValue }
%struct.CClosure = type { ptr, i8, i8, i8, i8, ptr, ptr, ptr, [1 x %struct.lua_TValue] }

@luaO_nilobject_ = external hidden constant %struct.lua_TValue, align 8

; Function Attrs: nounwind uwtable
define internal ptr @index2adr(ptr noundef %0, i32 noundef %1) #0 {
  %3 = alloca ptr, align 8
  %4 = alloca ptr, align 8
  %5 = alloca i32, align 4
  %6 = alloca ptr, align 8
  %7 = alloca i32, align 4
  %8 = alloca ptr, align 8
  %9 = alloca ptr, align 8
  %10 = alloca ptr, align 8
  store ptr %0, ptr %4, align 8, !tbaa !4
  store i32 %1, ptr %5, align 4, !tbaa !25
  %11 = load i32, ptr %5, align 4, !tbaa !25
  %12 = icmp sgt i32 %11, 0
  br i1 %12, label %13, label %30

13:                                               ; preds = %2
  call void @llvm.lifetime.start.p0(i64 8, ptr %6) #6
  %14 = load ptr, ptr %4, align 8, !tbaa !4
  %15 = getelementptr inbounds nuw %struct.lua_State, ptr %14, i32 0, i32 5
  %16 = load ptr, ptr %15, align 8, !tbaa !26
  %17 = load i32, ptr %5, align 4, !tbaa !25
  %18 = sub nsw i32 %17, 1
  %19 = sext i32 %18 to i64
  %20 = getelementptr inbounds %struct.lua_TValue, ptr %16, i64 %19
  store ptr %20, ptr %6, align 8, !tbaa !9
  %21 = load ptr, ptr %6, align 8, !tbaa !9
  %22 = load ptr, ptr %4, align 8, !tbaa !4
  %23 = getelementptr inbounds nuw %struct.lua_State, ptr %22, i32 0, i32 4
  %24 = load ptr, ptr %23, align 8, !tbaa !11
  %25 = icmp uge ptr %21, %24
  br i1 %25, label %26, label %27

26:                                               ; preds = %13
  store ptr @luaO_nilobject_, ptr %3, align 8
  store i32 1, ptr %7, align 4
  br label %29

27:                                               ; preds = %13
  %28 = load ptr, ptr %6, align 8, !tbaa !9
  store ptr %28, ptr %3, align 8
  store i32 1, ptr %7, align 4
  br label %29

29:                                               ; preds = %27, %26
  call void @llvm.lifetime.end.p0(i64 8, ptr %6) #6
  br label %95

30:                                               ; preds = %2
  %31 = load i32, ptr %5, align 4, !tbaa !25
  %32 = icmp sgt i32 %31, -10000
  br i1 %32, label %33, label %40

33:                                               ; preds = %30
  %34 = load ptr, ptr %4, align 8, !tbaa !4
  %35 = getelementptr inbounds nuw %struct.lua_State, ptr %34, i32 0, i32 4
  %36 = load ptr, ptr %35, align 8, !tbaa !11
  %37 = load i32, ptr %5, align 4, !tbaa !25
  %38 = sext i32 %37 to i64
  %39 = getelementptr inbounds %struct.lua_TValue, ptr %36, i64 %38
  store ptr %39, ptr %3, align 8
  br label %95

40:                                               ; preds = %30
  %41 = load i32, ptr %5, align 4, !tbaa !25
  switch i32 %41, label %69 [
    i32 -10000, label %42
    i32 -10001, label %47
    i32 -10002, label %66
  ]

42:                                               ; preds = %40
  %43 = load ptr, ptr %4, align 8, !tbaa !4
  %44 = getelementptr inbounds nuw %struct.lua_State, ptr %43, i32 0, i32 6
  %45 = load ptr, ptr %44, align 8, !tbaa !35
  %46 = getelementptr inbounds nuw %struct.global_State, ptr %45, i32 0, i32 20
  store ptr %46, ptr %3, align 8
  br label %95

47:                                               ; preds = %40
  call void @llvm.lifetime.start.p0(i64 8, ptr %8) #6
  %48 = load ptr, ptr %4, align 8, !tbaa !4
  %49 = getelementptr inbounds nuw %struct.lua_State, ptr %48, i32 0, i32 7
  %50 = load ptr, ptr %49, align 8, !tbaa !28
  %51 = getelementptr inbounds nuw %struct.CallInfo, ptr %50, i32 0, i32 1
  %52 = load ptr, ptr %51, align 8, !tbaa !47
  %53 = getelementptr inbounds nuw %struct.lua_TValue, ptr %52, i32 0, i32 0
  %54 = load ptr, ptr %53, align 8, !tbaa !23
  store ptr %54, ptr %8, align 8, !tbaa !48
  call void @llvm.lifetime.start.p0(i64 8, ptr %9) #6
  %55 = load ptr, ptr %4, align 8, !tbaa !4
  %56 = getelementptr inbounds nuw %struct.lua_State, ptr %55, i32 0, i32 23
  store ptr %56, ptr %9, align 8, !tbaa !9
  %57 = load ptr, ptr %8, align 8, !tbaa !48
  %58 = getelementptr inbounds nuw %struct.CClosure, ptr %57, i32 0, i32 6
  %59 = load ptr, ptr %58, align 8, !tbaa !23
  %60 = load ptr, ptr %9, align 8, !tbaa !9
  %61 = getelementptr inbounds nuw %struct.lua_TValue, ptr %60, i32 0, i32 0
  store ptr %59, ptr %61, align 8, !tbaa !23
  %62 = load ptr, ptr %9, align 8, !tbaa !9
  %63 = getelementptr inbounds nuw %struct.lua_TValue, ptr %62, i32 0, i32 1
  store i32 5, ptr %63, align 8, !tbaa !24
  call void @llvm.lifetime.end.p0(i64 8, ptr %9) #6
  %64 = load ptr, ptr %4, align 8, !tbaa !4
  %65 = getelementptr inbounds nuw %struct.lua_State, ptr %64, i32 0, i32 23
  store ptr %65, ptr %3, align 8
  store i32 1, ptr %7, align 4
  call void @llvm.lifetime.end.p0(i64 8, ptr %8) #6
  br label %95

66:                                               ; preds = %40
  %67 = load ptr, ptr %4, align 8, !tbaa !4
  %68 = getelementptr inbounds nuw %struct.lua_State, ptr %67, i32 0, i32 22
  store ptr %68, ptr %3, align 8
  br label %95

69:                                               ; preds = %40
  call void @llvm.lifetime.start.p0(i64 8, ptr %10) #6
  %70 = load ptr, ptr %4, align 8, !tbaa !4
  %71 = getelementptr inbounds nuw %struct.lua_State, ptr %70, i32 0, i32 7
  %72 = load ptr, ptr %71, align 8, !tbaa !28
  %73 = getelementptr inbounds nuw %struct.CallInfo, ptr %72, i32 0, i32 1
  %74 = load ptr, ptr %73, align 8, !tbaa !47
  %75 = getelementptr inbounds nuw %struct.lua_TValue, ptr %74, i32 0, i32 0
  %76 = load ptr, ptr %75, align 8, !tbaa !23
  store ptr %76, ptr %10, align 8, !tbaa !48
  %77 = load i32, ptr %5, align 4, !tbaa !25
  %78 = sub nsw i32 -10002, %77
  store i32 %78, ptr %5, align 4, !tbaa !25
  %79 = load i32, ptr %5, align 4, !tbaa !25
  %80 = load ptr, ptr %10, align 8, !tbaa !48
  %81 = getelementptr inbounds nuw %struct.CClosure, ptr %80, i32 0, i32 4
  %82 = load i8, ptr %81, align 1, !tbaa !23
  %83 = zext i8 %82 to i32
  %84 = icmp sle i32 %79, %83
  br i1 %84, label %85, label %92

85:                                               ; preds = %69
  %86 = load ptr, ptr %10, align 8, !tbaa !48
  %87 = getelementptr inbounds nuw %struct.CClosure, ptr %86, i32 0, i32 8
  %88 = load i32, ptr %5, align 4, !tbaa !25
  %89 = sub nsw i32 %88, 1
  %90 = sext i32 %89 to i64
  %91 = getelementptr inbounds [1 x %struct.lua_TValue], ptr %87, i64 0, i64 %90
  br label %93

92:                                               ; preds = %69
  br label %93

93:                                               ; preds = %92, %85
  %94 = phi ptr [ %91, %85 ], [ @luaO_nilobject_, %92 ]
  store ptr %94, ptr %3, align 8
  store i32 1, ptr %7, align 4
  call void @llvm.lifetime.end.p0(i64 8, ptr %10) #6
  br label %95

95:                                               ; preds = %93, %66, %47, %42, %33, %29
  %96 = load ptr, ptr %3, align 8
  ret ptr %96
}

; Function Attrs: nounwind uwtable
define dso_local i32 @lua_equal(ptr noundef %0, i32 noundef %1, i32 noundef %2) #0 {
  %4 = alloca ptr, align 8
  %5 = alloca i32, align 4
  %6 = alloca i32, align 4
  %7 = alloca ptr, align 8
  %8 = alloca ptr, align 8
  %9 = alloca i32, align 4
  store ptr %0, ptr %4, align 8, !tbaa !4
  store i32 %1, ptr %5, align 4, !tbaa !25
  store i32 %2, ptr %6, align 4, !tbaa !25
  call void @llvm.lifetime.start.p0(i64 8, ptr %7) #6
  call void @llvm.lifetime.start.p0(i64 8, ptr %8) #6
  call void @llvm.lifetime.start.p0(i64 4, ptr %9) #6
  %10 = load ptr, ptr %4, align 8, !tbaa !4
  %11 = load i32, ptr %5, align 4, !tbaa !25
  %12 = call ptr @index2adr(ptr noundef %10, i32 noundef %11)
  store ptr %12, ptr %7, align 8, !tbaa !9
  %13 = load ptr, ptr %4, align 8, !tbaa !4
  %14 = load i32, ptr %6, align 4, !tbaa !25
  %15 = call ptr @index2adr(ptr noundef %13, i32 noundef %14)
  store ptr %15, ptr %8, align 8, !tbaa !9
  %16 = load ptr, ptr %7, align 8, !tbaa !9
  %17 = icmp eq ptr %16, @luaO_nilobject_
  br i1 %17, label %21, label %18

18:                                               ; preds = %3
  %19 = load ptr, ptr %8, align 8, !tbaa !9
  %20 = icmp eq ptr %19, @luaO_nilobject_
  br i1 %20, label %21, label %22

21:                                               ; preds = %18, %3
  br label %39

22:                                               ; preds = %18
  %23 = load ptr, ptr %7, align 8, !tbaa !9
  %24 = getelementptr inbounds nuw %struct.lua_TValue, ptr %23, i32 0, i32 1
  %25 = load i32, ptr %24, align 8, !tbaa !24
  %26 = load ptr, ptr %8, align 8, !tbaa !9
  %27 = getelementptr inbounds nuw %struct.lua_TValue, ptr %26, i32 0, i32 1
  %28 = load i32, ptr %27, align 8, !tbaa !24
  %29 = icmp eq i32 %25, %28
  br i1 %29, label %30, label %36

30:                                               ; preds = %22
  %31 = load ptr, ptr %4, align 8, !tbaa !4
  %32 = load ptr, ptr %7, align 8, !tbaa !9
  %33 = load ptr, ptr %8, align 8, !tbaa !9
  %34 = call i32 @luaV_equalval(ptr noundef %31, ptr noundef %32, ptr noundef %33)
  %35 = icmp ne i32 %34, 0
  br label %36

36:                                               ; preds = %30, %22
  %37 = phi i1 [ false, %22 ], [ %35, %30 ]
  %38 = zext i1 %37 to i32
  br label %39

39:                                               ; preds = %36, %21
  %40 = phi i32 [ 0, %21 ], [ %38, %36 ]
  store i32 %40, ptr %9, align 4, !tbaa !25
  %41 = load i32, ptr %9, align 4, !tbaa !25
  call void @llvm.lifetime.end.p0(i64 4, ptr %9) #6
  call void @llvm.lifetime.end.p0(i64 8, ptr %8) #6
  call void @llvm.lifetime.end.p0(i64 8, ptr %7) #6
  ret i32 %41
}